; Function Attrs: uwtable
define internal void @_ZL26handshaker_client_destructP22alts_handshaker_client(ptr noundef readonly %c) #13 personality ptr @__gxx_personality_v0 {
entry:
  %ref.tmp = alloca %"class.grpc_core::DebugLocation", align 1
  %agg.tmp = alloca %"class.absl::lts_20230802::Status", align 8
  %cmp = icmp eq ptr %c, null
  br i1 %cmp, label %if.end10, label %if.end

if.end:                                           ; preds = %entry
  %call = getelementptr inbounds i8, ptr %c, i64 24
  %0 = load ptr, ptr %call, align 8
  %cmp1.not = icmp eq ptr %0, null
  br i1 %cmp1.not, label %if.end10, label %if.then2

if.then2:                                         ; preds = %if.end
  br i1 icmp ne (ptr @_ZTHN9grpc_core7ExecCtx9exec_ctx_E, ptr null), label %1, label %_ZN9grpc_core7ExecCtx3GetEv.exit

1:                                                ; preds = %if.then2
  tail call void @_ZTHN9grpc_core7ExecCtx9exec_ctx_E()
  br label %_ZN9grpc_core7ExecCtx3GetEv.exit

_ZN9grpc_core7ExecCtx3GetEv.exit:                 ; preds = %if.then2, %1
  %2 = tail call noundef align 8 ptr @llvm.threadlocal.address.p0(ptr align 8 @_ZN9grpc_core7ExecCtx9exec_ctx_E)
  %3 = load ptr, ptr %2, align 8
  %cmp4 = icmp eq ptr %3, null
  %4 = load ptr, ptr %call, align 8
  br i1 %cmp4, label %if.then5, label %if.else

if.then5:                                         ; preds = %_ZN9grpc_core7ExecCtx3GetEv.exit
  tail call void @grpc_call_unref(ptr noundef %4)
  br label %if.end10

if.else:                                          ; preds = %_ZN9grpc_core7ExecCtx3GetEv.exit
  %call.i = tail call ptr @gpr_malloc(i64 noundef 48)
  store ptr @_ZL21handshaker_call_unrefPvN4absl12lts_202308026StatusE, ptr %call.i, align 8
  %cb_arg2.i = getelementptr inbounds i8, ptr %call.i, i64 8
  store ptr %4, ptr %cb_arg2.i, align 8
  %wrapper.i = getelementptr inbounds i8, ptr %call.i, i64 16
  %cb1.i.i = getelementptr inbounds i8, ptr %call.i, i64 24
  store ptr @_ZN12closure_impl15closure_wrapperEPvN4absl12lts_202308026StatusE, ptr %cb1.i.i, align 8
  %cb_arg2.i.i = getelementptr inbounds i8, ptr %call.i, i64 32
  store ptr %call.i, ptr %cb_arg2.i.i, align 8
  %error_data.i.i = getelementptr inbounds i8, ptr %call.i, i64 40
  store i64 0, ptr %error_data.i.i, align 8
  store i64 0, ptr %agg.tmp, align 8, !alias.scope !7
  invoke void @_ZN9grpc_core7ExecCtx3RunERKNS_13DebugLocationEP12grpc_closureN4absl12lts_202308026StatusE(ptr noundef nonnull align 1 dereferenceable(1) %ref.tmp, ptr noundef nonnull %wrapper.i, ptr noundef nonnull %agg.tmp)
          to label %invoke.cont unwind label %lpad

invoke.cont:                                      ; preds = %if.else
  %5 = load i64, ptr %agg.tmp, align 8
  %and.i.i.i = and i64 %5, 1
  %cmp.i.i.i = icmp eq i64 %and.i.i.i, 0
  br i1 %cmp.i.i.i, label %if.end10, label %if.then.i.i

if.then.i.i:                                      ; preds = %invoke.cont
  invoke void @_ZN4absl12lts_202308026Status15UnrefNonInlinedEm(i64 noundef %5)
          to label %if.end10 unwind label %terminate.lpad.i

terminate.lpad.i:                                 ; preds = %if.then.i.i
  %6 = landingpad { ptr, i32 }
          catch ptr null
  %7 = extractvalue { ptr, i32 } %6, 0
  call void @__clang_call_terminate(ptr %7) #19
  unreachable

lpad:                                             ; preds = %if.else
  %8 = landingpad { ptr, i32 }
          cleanup
  call void @_ZN4absl12lts_202308026StatusD2Ev(ptr noundef nonnull align 8 dereferenceable(8) %agg.tmp) #18
  resume { ptr, i32 } %8

if.end10:                                         ; preds = %if.then.i.i, %invoke.cont, %if.then5, %entry, %if.end
  ret void
}